; Function Attrs: mustprogress nounwind uwtable
define dso_local void @_ZN4llvm26BlockFrequencyInfoImplBase11packageLoopERNS0_8LoopDataE(ptr noundef nonnull readonly align 8 captures(none) dereferenceable(112) %0, ptr noundef nonnull align 8 dereferenceable(176) %1) local_unnamed_addr #0 align 2 {
  %3 = getelementptr inbounds nuw i8, ptr %1, i64 96
  %4 = load ptr, ptr %3, align 8
  %5 = tail call noundef i64 @_ZNK4llvm15SmallVectorBaseIjE4sizeEv(ptr noundef nonnull align 8 dereferenceable(16) %3) #23
  %6 = getelementptr inbounds %"struct.llvm::BlockFrequencyInfoImplBase::BlockNode", ptr %4, i64 %5
  %.not16 = icmp eq i64 %5, 0
  br i1 %.not16, label %._crit_edge, label %.lr.ph

.lr.ph:                                           ; preds = %2
  %7 = getelementptr inbounds nuw i8, ptr %0, i64 64
  br label %8

8:                                                ; preds = %.lr.ph, %_ZNK4llvm26BlockFrequencyInfoImplBase11WorkingData15getPackagedLoopEv.exit.thread
  %.017 = phi ptr [ %4, %.lr.ph ], [ %26, %_ZNK4llvm26BlockFrequencyInfoImplBase11WorkingData15getPackagedLoopEv.exit.thread ]
  %9 = load i32, ptr %.017, align 4
  %10 = zext i32 %9 to i64
  %11 = load ptr, ptr %7, align 8
  %12 = getelementptr inbounds nuw %"struct.llvm::BlockFrequencyInfoImplBase::WorkingData", ptr %11, i64 %10, i32 1
  %13 = load ptr, ptr %12, align 8
  %.not.i = icmp eq ptr %13, null
  br i1 %.not.i, label %_ZNK4llvm26BlockFrequencyInfoImplBase11WorkingData15getPackagedLoopEv.exit.thread, label %14

14:                                               ; preds = %8
  %15 = getelementptr inbounds nuw i8, ptr %13, i64 8
  %16 = load i8, ptr %15, align 8
  %17 = trunc i8 %16 to i1
  br i1 %17, label %.preheader.i, label %_ZNK4llvm26BlockFrequencyInfoImplBase11WorkingData15getPackagedLoopEv.exit.thread

.preheader.i:                                     ; preds = %14, %19
  %.0.i = phi ptr [ %18, %19 ], [ %13, %14 ]
  %18 = load ptr, ptr %.0.i, align 8
  %.not9.i = icmp eq ptr %18, null
  br i1 %.not9.i, label %_ZNK4llvm26BlockFrequencyInfoImplBase11WorkingData15getPackagedLoopEv.exit, label %19

19:                                               ; preds = %.preheader.i
  %20 = getelementptr inbounds nuw i8, ptr %18, i64 8
  %21 = load i8, ptr %20, align 8
  %22 = trunc i8 %21 to i1
  br i1 %22, label %.preheader.i, label %_ZNK4llvm26BlockFrequencyInfoImplBase11WorkingData15getPackagedLoopEv.exit, !llvm.loop !15

_ZNK4llvm26BlockFrequencyInfoImplBase11WorkingData15getPackagedLoopEv.exit: ; preds = %19, %.preheader.i
  %23 = getelementptr inbounds nuw i8, ptr %.0.i, i64 16
  %24 = tail call noundef i64 @_ZNK4llvm15SmallVectorBaseIjE4sizeEv(ptr noundef nonnull align 8 dereferenceable(16) %23) #23
  %25 = getelementptr inbounds nuw i8, ptr %.0.i, i64 24
  store i32 0, ptr %25, align 8
  br label %_ZNK4llvm26BlockFrequencyInfoImplBase11WorkingData15getPackagedLoopEv.exit.thread

_ZNK4llvm26BlockFrequencyInfoImplBase11WorkingData15getPackagedLoopEv.exit.thread: ; preds = %8, %14, %_ZNK4llvm26BlockFrequencyInfoImplBase11WorkingData15getPackagedLoopEv.exit
  %26 = getelementptr inbounds nuw i8, ptr %.017, i64 4
  %.not = icmp eq ptr %26, %6
  br i1 %.not, label %._crit_edge, label %8

._crit_edge:                                      ; preds = %_ZNK4llvm26BlockFrequencyInfoImplBase11WorkingData15getPackagedLoopEv.exit.thread, %2
  %27 = getelementptr inbounds nuw i8, ptr %1, i64 8
  store i8 1, ptr %27, align 8
  ret void
}